; Function Attrs: nounwind uwtable
define internal fastcc range(i32 2, 6) i32 @exec_command_t(ptr noundef %0, i1 noundef zeroext %1) unnamed_addr #0 {
  br i1 %1, label %3, label %9

3:                                                ; preds = %2
  %4 = tail call ptr @psql_scan_slash_option(ptr noundef %0, i32 noundef 0, ptr noundef null, i1 noundef zeroext true) #16
  %5 = load i8, ptr getelementptr inbounds nuw (i8, ptr @pset, i64 402), align 2, !range !4, !noundef !5
  %6 = trunc nuw i8 %5 to i1
  %7 = tail call zeroext i1 @do_pset(ptr noundef nonnull @.str.65, ptr noundef %4, ptr noundef nonnull getelementptr inbounds nuw (i8, ptr @pset, i64 48), i1 noundef zeroext %6)
  tail call void @free(ptr noundef %4) #16
  %8 = select i1 %7, i32 2, i32 5
  br label %ignore_slash_options.exit

9:                                                ; preds = %2
  %10 = tail call ptr @psql_scan_slash_option(ptr noundef %0, i32 noundef 0, ptr noundef null, i1 noundef zeroext false) #16
  %.not2.i = icmp eq ptr %10, null
  br i1 %.not2.i, label %ignore_slash_options.exit, label %.lr.ph.i

.lr.ph.i:                                         ; preds = %9, %.lr.ph.i
  %11 = phi ptr [ %12, %.lr.ph.i ], [ %10, %9 ]
  tail call void @free(ptr noundef nonnull %11) #16
  %12 = tail call ptr @psql_scan_slash_option(ptr noundef %0, i32 noundef 0, ptr noundef null, i1 noundef zeroext false) #16
  %.not.i = icmp eq ptr %12, null
  br i1 %.not.i, label %ignore_slash_options.exit, label %.lr.ph.i, !llvm.loop !10

ignore_slash_options.exit:                        ; preds = %.lr.ph.i, %9, %3
  %.0 = phi i32 [ %8, %3 ], [ 2, %9 ], [ 2, %.lr.ph.i ]
  ret i32 %.0
}